; Function Attrs: nounwind uwtable
define internal ptr @_elementtree_Element_keys(ptr noundef readonly captures(none) %0, ptr readnone captures(none) %1) #0 {
  %3 = getelementptr i8, ptr %0, i64 40
  %.val = load ptr, ptr %3, align 8, !tbaa !37
  %.not.i = icmp eq ptr %.val, null
  br i1 %.not.i, label %6, label %4

4:                                                ; preds = %2
  %5 = load ptr, ptr %.val, align 8, !tbaa !52
  %.not6.i = icmp eq ptr %5, null
  br i1 %.not6.i, label %6, label %8

6:                                                ; preds = %4, %2
  %7 = tail call ptr @PyList_New(i64 noundef 0) #12
  br label %_elementtree_Element_keys_impl.exit

8:                                                ; preds = %4
  %9 = tail call ptr @PyDict_Keys(ptr noundef nonnull %5) #12
  br label %_elementtree_Element_keys_impl.exit

_elementtree_Element_keys_impl.exit:              ; preds = %6, %8
  %.0.i = phi ptr [ %9, %8 ], [ %7, %6 ]
  ret ptr %.0.i
}